target datalayout = "e-m:e-p270:32:32-p271:32:32-p272:64:64-i64:64-i128:128-f80:128-n8:16:32:64-S128"
target triple = "x86_64-pc-linux-gnu"

%"class.zxing::PerspectiveTransform" = type { %"class.zxing::Counted.base", float, float, float, float, float, float, float, float, float }
%"class.zxing::Counted.base" = type <{ ptr, i32 }>
%"class.zxing::Counted" = type <{ ptr, i32, [4 x i8] }>

@_ZTVN5zxing20PerspectiveTransformE = linkonce_odr hidden unnamed_addr constant { [4 x ptr] } { [4 x ptr] [ptr null, ptr @_ZTIN5zxing20PerspectiveTransformE, ptr @_ZN5zxing7CountedD2Ev, ptr @_ZN5zxing20PerspectiveTransformD0Ev] }, comdat, align 8
@_ZTVN5zxing7CountedE = linkonce_odr hidden unnamed_addr constant { [4 x ptr] } { [4 x ptr] [ptr null, ptr @_ZTIN5zxing7CountedE, ptr @_ZN5zxing7CountedD2Ev, ptr @_ZN5zxing7CountedD0Ev] }, comdat, align 8

; Function Attrs: mustprogress nounwind uwtable
define linkonce_odr hidden void @_ZN5zxing7CountedC2Ev(ptr noundef nonnull align 8 dereferenceable(12) %0) unnamed_addr #1 comdat align 2 {
  %2 = alloca ptr, align 8
  store ptr %0, ptr %2, align 8, !tbaa !24
  %3 = load ptr, ptr %2, align 8
  store ptr getelementptr inbounds inrange(-16, 16) ({ [4 x ptr] }, ptr @_ZTVN5zxing7CountedE, i32 0, i32 0, i32 2), ptr %3, align 8, !tbaa !10
  %4 = getelementptr inbounds nuw %"class.zxing::Counted", ptr %3, i32 0, i32 1
  store i32 0, ptr %4, align 8, !tbaa !26
  ret void
}

; Function Attrs: mustprogress uwtable
define hidden void @_ZN5zxing20PerspectiveTransformC2Efffffffff(ptr noundef nonnull align 8 dereferenceable(48) %0, float noundef %1, float noundef %2, float noundef %3, float noundef %4, float noundef %5, float noundef %6, float noundef %7, float noundef %8, float noundef %9) unnamed_addr #0 align 2 {
  %11 = alloca ptr, align 8
  %12 = alloca float, align 4
  %13 = alloca float, align 4
  %14 = alloca float, align 4
  %15 = alloca float, align 4
  %16 = alloca float, align 4
  %17 = alloca float, align 4
  %18 = alloca float, align 4
  %19 = alloca float, align 4
  %20 = alloca float, align 4
  store ptr %0, ptr %11, align 8, !tbaa !3
  store float %1, ptr %12, align 4, !tbaa !8
  store float %2, ptr %13, align 4, !tbaa !8
  store float %3, ptr %14, align 4, !tbaa !8
  store float %4, ptr %15, align 4, !tbaa !8
  store float %5, ptr %16, align 4, !tbaa !8
  store float %6, ptr %17, align 4, !tbaa !8
  store float %7, ptr %18, align 4, !tbaa !8
  store float %8, ptr %19, align 4, !tbaa !8
  store float %9, ptr %20, align 4, !tbaa !8
  %21 = load ptr, ptr %11, align 8
  call void @_ZN5zxing7CountedC2Ev(ptr noundef nonnull align 8 dereferenceable(12) %21)
  store ptr getelementptr inbounds inrange(-16, 16) ({ [4 x ptr] }, ptr @_ZTVN5zxing20PerspectiveTransformE, i32 0, i32 0, i32 2), ptr %21, align 8, !tbaa !10
  %22 = getelementptr inbounds nuw %"class.zxing::PerspectiveTransform", ptr %21, i32 0, i32 1
  %23 = load float, ptr %12, align 4, !tbaa !8
  store float %23, ptr %22, align 4, !tbaa !12
  %24 = getelementptr inbounds nuw %"class.zxing::PerspectiveTransform", ptr %21, i32 0, i32 2
  %25 = load float, ptr %15, align 4, !tbaa !8
  store float %25, ptr %24, align 8, !tbaa !16
  %26 = getelementptr inbounds nuw %"class.zxing::PerspectiveTransform", ptr %21, i32 0, i32 3
  %27 = load float, ptr %18, align 4, !tbaa !8
  store float %27, ptr %26, align 4, !tbaa !17
  %28 = getelementptr inbounds nuw %"class.zxing::PerspectiveTransform", ptr %21, i32 0, i32 4
  %29 = load float, ptr %13, align 4, !tbaa !8
  store float %29, ptr %28, align 8, !tbaa !18
  %30 = getelementptr inbounds nuw %"class.zxing::PerspectiveTransform", ptr %21, i32 0, i32 5
  %31 = load float, ptr %16, align 4, !tbaa !8
  store float %31, ptr %30, align 4, !tbaa !19
  %32 = getelementptr inbounds nuw %"class.zxing::PerspectiveTransform", ptr %21, i32 0, i32 6
  %33 = load float, ptr %19, align 4, !tbaa !8
  store float %33, ptr %32, align 8, !tbaa !20
  %34 = getelementptr inbounds nuw %"class.zxing::PerspectiveTransform", ptr %21, i32 0, i32 7
  %35 = load float, ptr %14, align 4, !tbaa !8
  store float %35, ptr %34, align 4, !tbaa !21
  %36 = getelementptr inbounds nuw %"class.zxing::PerspectiveTransform", ptr %21, i32 0, i32 8
  %37 = load float, ptr %17, align 4, !tbaa !8
  store float %37, ptr %36, align 8, !tbaa !22
  %38 = getelementptr inbounds nuw %"class.zxing::PerspectiveTransform", ptr %21, i32 0, i32 9
  %39 = load float, ptr %20, align 4, !tbaa !8
  store float %39, ptr %38, align 4, !tbaa !23
  ret void
}