; Function Attrs: mustprogress nofree norecurse nosync nounwind willreturn memory(argmem: write) uwtable
define hidden void @_ZN5zxing20PerspectiveTransformC2Efffffffff(ptr noundef nonnull writeonly align 8 captures(none) dereferenceable(48) initializes((0, 48)) %0, float noundef %1, float noundef %2, float noundef %3, float noundef %4, float noundef %5, float noundef %6, float noundef %7, float noundef %8, float noundef %9) unnamed_addr #0 align 2 {
  %11 = getelementptr inbounds nuw i8, ptr %0, i64 8
  store i32 0, ptr %11, align 8, !tbaa !3
  store ptr getelementptr inbounds nuw inrange(-16, 16) (i8, ptr @_ZTVN5zxing20PerspectiveTransformE, i64 16), ptr %0, align 8, !tbaa !8
  %12 = getelementptr inbounds nuw i8, ptr %0, i64 12
  store float %1, ptr %12, align 4, !tbaa !10
  %13 = getelementptr inbounds nuw i8, ptr %0, i64 16
  store float %4, ptr %13, align 8, !tbaa !13
  %14 = getelementptr inbounds nuw i8, ptr %0, i64 20
  store float %7, ptr %14, align 4, !tbaa !14
  %15 = getelementptr inbounds nuw i8, ptr %0, i64 24
  store float %2, ptr %15, align 8, !tbaa !15
  %16 = getelementptr inbounds nuw i8, ptr %0, i64 28
  store float %5, ptr %16, align 4, !tbaa !16
  %17 = getelementptr inbounds nuw i8, ptr %0, i64 32
  store float %8, ptr %17, align 8, !tbaa !17
  %18 = getelementptr inbounds nuw i8, ptr %0, i64 36
  store float %3, ptr %18, align 4, !tbaa !18
  %19 = getelementptr inbounds nuw i8, ptr %0, i64 40
  store float %6, ptr %19, align 8, !tbaa !19
  %20 = getelementptr inbounds nuw i8, ptr %0, i64 44
  store float %9, ptr %20, align 4, !tbaa !20
  ret void
}